target datalayout = "e-m:e-p270:32:32-p271:32:32-p272:64:64-i64:64-i128:128-f80:128-n8:16:32:64-S128"
target triple = "x86_64-pc-linux-gnu"

%struct.darktable_t = type { %struct.dt_codepath_t, i32, i32, ptr, ptr, ptr, ptr, ptr, ptr, ptr, ptr, ptr, ptr, ptr, ptr, ptr, ptr, ptr, ptr, ptr, ptr, ptr, ptr, ptr, ptr, ptr, ptr, ptr, ptr, ptr, [64 x %struct.dt_pthread_mutex_t], %struct.dt_pthread_mutex_t, %struct.dt_pthread_mutex_t, %struct.dt_pthread_mutex_t, %struct.dt_pthread_mutex_t, %struct.dt_pthread_mutex_t, ptr, ptr, ptr, ptr, ptr, ptr, ptr, ptr, ptr, ptr, ptr, ptr, ptr, %struct.dt_lua_state_t, ptr, double, ptr, i32, [47 x i32], i32, i32, ptr, ptr, %struct.dt_sys_resources_t, %struct.dt_backthumb_t, %struct.dt_gimp_t }
%struct.dt_codepath_t = type { i8, [3 x i8] }
%struct.dt_pthread_mutex_t = type { %union.pthread_mutex_t }
%union.pthread_mutex_t = type { %struct.__pthread_mutex_s }
%struct.__pthread_mutex_s = type { i32, i32, i32, i32, i32, i16, i16, %struct.__pthread_internal_list }
%struct.__pthread_internal_list = type { ptr, ptr }
%struct.dt_lua_state_t = type { i32 }
%struct.dt_sys_resources_t = type { i64, i64, ptr, ptr, i32 }
%struct.dt_backthumb_t = type { double, double, i32, i32, i32, i32 }
%struct.dt_gimp_t = type { i32, ptr, ptr, i32, i32 }
%struct.dt_lib_module_t = type { %struct.dt_action_t, ptr, ptr, ptr, ptr, ptr, ptr, ptr, ptr, ptr, ptr, ptr, ptr, ptr, ptr, ptr, ptr, ptr, ptr, ptr, ptr, ptr, ptr, ptr, ptr, ptr, ptr, ptr, ptr, ptr, ptr, [128 x i8], ptr, ptr, i32, ptr, ptr, ptr, i32 }
%struct.dt_action_t = type { i32, ptr, ptr, ptr, ptr, ptr }
%struct.dt_lib_t = type { ptr, ptr, %struct.anon }
%struct.anon = type { %struct.anon.0, %struct.anon.1, %struct.anon.2, %struct.anon.3 }
%struct.anon.0 = type { ptr, ptr, ptr, ptr, ptr, i32, i32, i32, ptr, ptr, ptr, ptr, ptr }
%struct.anon.1 = type { ptr, ptr, i32 }
%struct.anon.2 = type { ptr }
%struct.anon.3 = type { i32 }
%struct._GList = type { ptr, ptr, ptr }

@darktable = external global %struct.darktable_t, align 8

; Function Attrs: nounwind uwtable
define ptr @dt_lib_get_module(ptr noundef %0) #0 {
  %2 = alloca ptr, align 8
  %3 = alloca ptr, align 8
  %4 = alloca ptr, align 8
  %5 = alloca i32, align 4
  %6 = alloca ptr, align 8
  store ptr %0, ptr %3, align 8, !tbaa !63
  call void @llvm.lifetime.start.p0(i64 8, ptr %4) #12
  %7 = load ptr, ptr getelementptr inbounds nuw (%struct.darktable_t, ptr @darktable, i32 0, i32 10), align 8, !tbaa !79
  %8 = getelementptr inbounds nuw %struct.dt_lib_t, ptr %7, i32 0, i32 0
  %9 = load ptr, ptr %8, align 8, !tbaa !80
  store ptr %9, ptr %4, align 8, !tbaa !89
  br label %10

10:                                               ; preds = %38, %1
  %11 = load ptr, ptr %4, align 8, !tbaa !89
  %12 = icmp ne ptr %11, null
  br i1 %12, label %14, label %13

13:                                               ; preds = %10
  store i32 2, ptr %5, align 4
  br label %40

14:                                               ; preds = %10
  call void @llvm.lifetime.start.p0(i64 8, ptr %6) #12
  %15 = load ptr, ptr %4, align 8, !tbaa !89
  %16 = getelementptr inbounds nuw %struct._GList, ptr %15, i32 0, i32 0
  %17 = load ptr, ptr %16, align 8, !tbaa !90
  store ptr %17, ptr %6, align 8, !tbaa !6
  %18 = load ptr, ptr %6, align 8, !tbaa !6
  %19 = getelementptr inbounds nuw %struct.dt_lib_module_t, ptr %18, i32 0, i32 31
  %20 = getelementptr inbounds [128 x i8], ptr %19, i64 0, i64 0
  %21 = load ptr, ptr %3, align 8, !tbaa !63
  %22 = call i32 @strcmp(ptr noundef %20, ptr noundef %21) #13
  %23 = icmp eq i32 %22, 0
  br i1 %23, label %24, label %26

24:                                               ; preds = %14
  %25 = load ptr, ptr %6, align 8, !tbaa !6
  store ptr %25, ptr %2, align 8
  store i32 1, ptr %5, align 4
  br label %27

26:                                               ; preds = %14
  store i32 0, ptr %5, align 4
  br label %27

27:                                               ; preds = %26, %24
  call void @llvm.lifetime.end.p0(i64 8, ptr %6) #12
  %28 = load i32, ptr %5, align 4
  switch i32 %28, label %40 [
    i32 0, label %29
  ]

29:                                               ; preds = %27
  br label %30

30:                                               ; preds = %29
  %31 = load ptr, ptr %4, align 8, !tbaa !89
  %32 = icmp ne ptr %31, null
  br i1 %32, label %33, label %37

33:                                               ; preds = %30
  %34 = load ptr, ptr %4, align 8, !tbaa !89
  %35 = getelementptr inbounds nuw %struct._GList, ptr %34, i32 0, i32 1
  %36 = load ptr, ptr %35, align 8, !tbaa !93
  br label %38

37:                                               ; preds = %30
  br label %38

38:                                               ; preds = %37, %33
  %39 = phi ptr [ %36, %33 ], [ null, %37 ]
  store ptr %39, ptr %4, align 8, !tbaa !89
  br label %10

40:                                               ; preds = %27, %13
  call void @llvm.lifetime.end.p0(i64 8, ptr %4) #12
  %41 = load i32, ptr %5, align 4
  switch i32 %41, label %45 [
    i32 2, label %42
    i32 1, label %43
  ]

42:                                               ; preds = %40
  store ptr null, ptr %2, align 8
  br label %43

43:                                               ; preds = %42, %40
  %44 = load ptr, ptr %2, align 8
  ret ptr %44

45:                                               ; preds = %40
  unreachable
}