; Function Attrs: nofree nounwind memory(read, inaccessiblemem: none) uwtable
define ptr @dt_lib_get_module(ptr noundef readonly captures(none) %0) local_unnamed_addr #11 {
  %2 = load ptr, ptr getelementptr inbounds nuw (i8, ptr @darktable, i64 72), align 8, !tbaa !71
  %.01113 = load ptr, ptr %2, align 8, !tbaa !72
  %.not14 = icmp eq ptr %.01113, null
  br i1 %.not14, label %._crit_edge, label %.lr.ph

3:                                                ; preds = %.lr.ph
  %4 = getelementptr inbounds nuw i8, ptr %.01115, i64 8
  %.011 = load ptr, ptr %4, align 8, !tbaa !72
  %.not = icmp eq ptr %.011, null
  br i1 %.not, label %._crit_edge, label %.lr.ph

.lr.ph:                                           ; preds = %1, %3
  %.01115 = phi ptr [ %.011, %3 ], [ %.01113, %1 ]
  %5 = load ptr, ptr %.01115, align 8, !tbaa !73
  %6 = getelementptr inbounds nuw i8, ptr %5, i64 288
  %7 = tail call i32 @strcmp(ptr noundef nonnull dereferenceable(1) %6, ptr noundef nonnull dereferenceable(1) %0) #21
  %.not12 = icmp eq i32 %7, 0
  br i1 %.not12, label %._crit_edge, label %3

._crit_edge:                                      ; preds = %.lr.ph, %3, %1
  %spec.select = phi ptr [ null, %1 ], [ null, %3 ], [ %5, %.lr.ph ]
  ret ptr %spec.select
}